; Function Attrs: mustprogress nofree norecurse nosync nounwind willreturn memory(read, inaccessiblemem: none) uwtable
define i32 @llama_token_get_type(ptr nocapture noundef readonly %model, i32 noundef %token) local_unnamed_addr #23 {
entry:
  %id_to_token = getelementptr inbounds i8, ptr %model, i64 192
  %conv = sext i32 %token to i64
  %0 = load ptr, ptr %id_to_token, align 8
  %type = getelementptr inbounds %"struct.llama_vocab::token_data", ptr %0, i64 %conv, i32 2
  %1 = load i32, ptr %type, align 4
  ret i32 %1
}